; Function Attrs: mustprogress nofree norecurse nosync nounwind willreturn memory(argmem: read) uwtable
define dso_local { ptr, i64 } @_ZN4llvm3sys4path23remove_leading_dotslashENS_9StringRefENS1_5StyleE(ptr %0, i64 %1, i32 noundef %2) local_unnamed_addr #6 {
  %4 = icmp ugt i64 %1, 2
  br i1 %4, label %.lr.ph43, label %.critedge

.lr.ph43:                                         ; preds = %3
  %switch.i.i.i10 = icmp ugt i32 %2, 1
  br i1 %switch.i.i.i10, label %.lr.ph43.split.us.split, label %.lr.ph43.split.split.us

.lr.ph43.split.us.split:                          ; preds = %.lr.ph43, %.critedge2.us
  %.sroa.0.042.us = phi ptr [ %.pn2931.us52, %.critedge2.us ], [ %0, %.lr.ph43 ]
  %.sroa.8.041.us = phi i64 [ %.pn2732.us51, %.critedge2.us ], [ %1, %.lr.ph43 ]
  %5 = load i8, ptr %.sroa.0.042.us, align 1
  %6 = icmp eq i8 %5, 46
  br i1 %6, label %7, label %.critedge

7:                                                ; preds = %.lr.ph43.split.us.split
  %8 = getelementptr inbounds i8, ptr %.sroa.0.042.us, i64 1
  %9 = load i8, ptr %8, align 1
  switch i8 %9, label %.critedge [
    i8 47, label %.lr.ph.us.preheader
    i8 92, label %.lr.ph.us.preheader
  ]

.lr.ph.us.preheader:                              ; preds = %7, %7
  %10 = getelementptr inbounds i8, ptr %.sroa.0.042.us, i64 2
  %11 = add i64 %.sroa.8.041.us, -2
  br label %.lr.ph.us

.lr.ph.us:                                        ; preds = %.lr.ph.us.preheader, %_ZN4llvm3sys4path12is_separatorEcNS1_5StyleE.exit13.thread.us54
  %.pn2732.us51 = phi i64 [ %14, %_ZN4llvm3sys4path12is_separatorEcNS1_5StyleE.exit13.thread.us54 ], [ %11, %.lr.ph.us.preheader ]
  %.pn2931.us52 = phi ptr [ %13, %_ZN4llvm3sys4path12is_separatorEcNS1_5StyleE.exit13.thread.us54 ], [ %10, %.lr.ph.us.preheader ]
  %12 = load i8, ptr %.pn2931.us52, align 1
  switch i8 %12, label %.critedge2.us [
    i8 47, label %_ZN4llvm3sys4path12is_separatorEcNS1_5StyleE.exit13.thread.us54
    i8 92, label %_ZN4llvm3sys4path12is_separatorEcNS1_5StyleE.exit13.thread.us54
  ]

_ZN4llvm3sys4path12is_separatorEcNS1_5StyleE.exit13.thread.us54: ; preds = %.lr.ph.us, %.lr.ph.us
  %13 = getelementptr inbounds i8, ptr %.pn2931.us52, i64 1
  %14 = add i64 %.pn2732.us51, -1
  %.not.us55 = icmp eq i64 %14, 0
  br i1 %.not.us55, label %.critedge.loopexit, label %.lr.ph.us, !llvm.loop !52

.critedge2.us:                                    ; preds = %.lr.ph.us
  %15 = icmp ugt i64 %.pn2732.us51, 2
  br i1 %15, label %.lr.ph43.split.us.split, label %.critedge, !llvm.loop !53

.lr.ph43.split.split.us:                          ; preds = %.lr.ph43, %.critedge2.us72
  %.sroa.0.042.us66 = phi ptr [ %.pn2931.us.us, %.critedge2.us72 ], [ %0, %.lr.ph43 ]
  %.sroa.8.041.us67 = phi i64 [ %.pn2732.us.us, %.critedge2.us72 ], [ %1, %.lr.ph43 ]
  %16 = load i8, ptr %.sroa.0.042.us66, align 1
  %17 = icmp eq i8 %16, 46
  br i1 %17, label %18, label %.critedge

18:                                               ; preds = %.lr.ph43.split.split.us
  %19 = getelementptr inbounds i8, ptr %.sroa.0.042.us66, i64 1
  %20 = load i8, ptr %19, align 1
  %21 = icmp eq i8 %20, 47
  br i1 %21, label %.lr.ph.us75.preheader, label %.critedge

.lr.ph.us75.preheader:                            ; preds = %18
  %22 = getelementptr inbounds i8, ptr %.sroa.0.042.us66, i64 2
  %23 = add i64 %.sroa.8.041.us67, -2
  br label %.lr.ph.us75

.critedge2.us72:                                  ; preds = %.lr.ph.us75
  %24 = icmp ugt i64 %.pn2732.us.us, 2
  br i1 %24, label %.lr.ph43.split.split.us, label %.critedge, !llvm.loop !53

.lr.ph.us75:                                      ; preds = %.lr.ph.us75.preheader, %_ZN4llvm3sys4path12is_separatorEcNS1_5StyleE.exit13.thread.us.us
  %.pn2732.us.us = phi i64 [ %28, %_ZN4llvm3sys4path12is_separatorEcNS1_5StyleE.exit13.thread.us.us ], [ %23, %.lr.ph.us75.preheader ]
  %.pn2931.us.us = phi ptr [ %27, %_ZN4llvm3sys4path12is_separatorEcNS1_5StyleE.exit13.thread.us.us ], [ %22, %.lr.ph.us75.preheader ]
  %25 = load i8, ptr %.pn2931.us.us, align 1
  %26 = icmp eq i8 %25, 47
  br i1 %26, label %_ZN4llvm3sys4path12is_separatorEcNS1_5StyleE.exit13.thread.us.us, label %.critedge2.us72

_ZN4llvm3sys4path12is_separatorEcNS1_5StyleE.exit13.thread.us.us: ; preds = %.lr.ph.us75
  %27 = getelementptr inbounds i8, ptr %.pn2931.us.us, i64 1
  %28 = add i64 %.pn2732.us.us, -1
  %.not.us.us = icmp eq i64 %28, 0
  br i1 %.not.us.us, label %.critedge.loopexit113, label %.lr.ph.us75, !llvm.loop !52

.critedge.loopexit:                               ; preds = %_ZN4llvm3sys4path12is_separatorEcNS1_5StyleE.exit13.thread.us54
  %scevgep104.le = getelementptr i8, ptr %.sroa.0.042.us, i64 %.sroa.8.041.us
  br label %.critedge

.critedge.loopexit113:                            ; preds = %_ZN4llvm3sys4path12is_separatorEcNS1_5StyleE.exit13.thread.us.us
  %scevgep.le = getelementptr i8, ptr %.sroa.0.042.us66, i64 %.sroa.8.041.us67
  br label %.critedge

.critedge:                                        ; preds = %18, %.critedge2.us72, %.lr.ph43.split.split.us, %7, %.critedge2.us, %.lr.ph43.split.us.split, %.critedge.loopexit113, %.critedge.loopexit, %3
  %.sroa.8.0.lcssa = phi i64 [ %1, %3 ], [ 0, %.critedge.loopexit ], [ 0, %.critedge.loopexit113 ], [ %.sroa.8.041.us, %.lr.ph43.split.us.split ], [ %.pn2732.us51, %.critedge2.us ], [ %.sroa.8.041.us, %7 ], [ %.sroa.8.041.us67, %.lr.ph43.split.split.us ], [ %.pn2732.us.us, %.critedge2.us72 ], [ %.sroa.8.041.us67, %18 ]
  %.sroa.0.0.lcssa = phi ptr [ %0, %3 ], [ %scevgep104.le, %.critedge.loopexit ], [ %scevgep.le, %.critedge.loopexit113 ], [ %.sroa.0.042.us, %.lr.ph43.split.us.split ], [ %.pn2931.us52, %.critedge2.us ], [ %.sroa.0.042.us, %7 ], [ %.sroa.0.042.us66, %.lr.ph43.split.split.us ], [ %.pn2931.us.us, %.critedge2.us72 ], [ %.sroa.0.042.us66, %18 ]
  %.fca.0.insert = insertvalue { ptr, i64 } poison, ptr %.sroa.0.0.lcssa, 0
  %.fca.1.insert = insertvalue { ptr, i64 } %.fca.0.insert, i64 %.sroa.8.0.lcssa, 1
  ret { ptr, i64 } %.fca.1.insert
}